; Function Attrs: mustprogress nounwind uwtable
define hidden noundef ptr @_ZN5boost3log11v2_mt_posix3aux14char_constantsIwE17trim_spaces_rightEPKwS6_(ptr noundef readnone %0, ptr noundef readonly %1) local_unnamed_addr #7 align 2 {
  br label %3

3:                                                ; preds = %4, %2
  %.0 = phi ptr [ %1, %2 ], [ %5, %4 ]
  %.not = icmp eq ptr %0, %.0
  br i1 %.not, label %.critedge, label %4

4:                                                ; preds = %3
  %5 = getelementptr inbounds i8, ptr %.0, i64 -4
  %6 = load i32, ptr %5, align 4, !tbaa !19
  %7 = tail call i32 @iswspace(i32 noundef %6) #11
  %.not5 = icmp eq i32 %7, 0
  br i1 %.not5, label %.critedge, label %3, !llvm.loop !22

.critedge:                                        ; preds = %3, %4
  ret ptr %.0
}